target datalayout = "e-m:e-p270:32:32-p271:32:32-p272:64:64-i64:64-i128:128-f80:128-n8:16:32:64-S128"
target triple = "x86_64-pc-linux-gnu"

%struct.Abc_Frame_t_ = type { ptr, ptr, ptr, ptr, ptr, ptr, ptr, ptr, ptr, ptr, i32, i32, i32, i32, i32, ptr, float, float, i32, i32, ptr, ptr, ptr, double, double, ptr, ptr, ptr, ptr, ptr, ptr, ptr, ptr, ptr, ptr, ptr, ptr, float, ptr, i32, ptr, ptr, ptr, ptr, ptr, i32, i32, i32, i32, i32, i32, ptr, ptr, ptr, ptr, ptr, ptr, i32, i32, ptr, ptr, ptr, ptr, ptr, ptr, ptr, ptr, ptr, ptr, ptr, ptr, ptr, ptr, ptr, ptr, ptr, ptr, ptr, ptr, ptr, ptr, ptr, ptr, ptr, ptr, ptr, ptr, ptr, ptr }

@.str.65 = private unnamed_addr constant [2 x i8] c"h\00", align 1
@.str.88 = private unnamed_addr constant [4 x i8] c"%s\0A\00", align 1
@.str.116 = private unnamed_addr constant [34 x i8] c"   -h :  print the command usage\0A\00", align 1
@.str.243 = private unnamed_addr constant [21 x i8] c"usage: version [-h]\0A\00", align 1
@.str.244 = private unnamed_addr constant [35 x i8] c"         print the version string\0A\00", align 1

; Function Attrs: nounwind uwtable
define internal i32 @CmdCommandVersion(ptr noundef %0, i32 noundef %1, ptr noundef %2) #0 {
  %4 = alloca i32, align 4
  %5 = alloca ptr, align 8
  %6 = alloca i32, align 4
  %7 = alloca ptr, align 8
  %8 = alloca i32, align 4
  store ptr %0, ptr %5, align 8
  store i32 %1, ptr %6, align 4
  store ptr %2, ptr %7, align 8
  call void (...) @Extra_UtilGetoptReset()
  br label %9

9:                                                ; preds = %3
  %10 = load i32, ptr %6, align 4
  %11 = load ptr, ptr %7, align 8
  %12 = call i32 @Extra_UtilGetopt(i32 noundef %10, ptr noundef %11, ptr noundef @.str.65)
  store i32 %12, ptr %8, align 4
  %13 = icmp ne i32 %12, -1
  br i1 %13, label %14, label %18

14:                                               ; preds = %9
  %15 = load i32, ptr %8, align 4
  switch i32 %15, label %17 [
    i32 104, label %16
  ]

16:                                               ; preds = %14
  br label %22

17:                                               ; preds = %14
  br label %22

18:                                               ; preds = %9
  %19 = load ptr, ptr %5, align 8
  %20 = call ptr @Abc_UtilsGetVersion(ptr noundef %19)
  %21 = call i32 (ptr, ...) @printf(ptr noundef @.str.88, ptr noundef %20)
  store i32 0, ptr %4, align 4
  br label %35

22:                                               ; preds = %17, %16
  %23 = load ptr, ptr %5, align 8
  %24 = getelementptr inbounds %struct.Abc_Frame_t_, ptr %23, i32 0, i32 21
  %25 = load ptr, ptr %24, align 8
  %26 = call i32 (ptr, ptr, ...) @fprintf(ptr noundef %25, ptr noundef @.str.243) #9
  %27 = load ptr, ptr %5, align 8
  %28 = getelementptr inbounds %struct.Abc_Frame_t_, ptr %27, i32 0, i32 21
  %29 = load ptr, ptr %28, align 8
  %30 = call i32 (ptr, ptr, ...) @fprintf(ptr noundef %29, ptr noundef @.str.244) #9
  %31 = load ptr, ptr %5, align 8
  %32 = getelementptr inbounds %struct.Abc_Frame_t_, ptr %31, i32 0, i32 21
  %33 = load ptr, ptr %32, align 8
  %34 = call i32 (ptr, ptr, ...) @fprintf(ptr noundef %33, ptr noundef @.str.116) #9
  store i32 1, ptr %4, align 4
  br label %35

35:                                               ; preds = %22, %18
  %36 = load i32, ptr %4, align 4
  ret i32 %36
}