; Function Attrs: nounwind uwtable
define internal range(i32 0, 2) i32 @CmdCommandVersion(ptr noundef %0, i32 noundef %1, ptr noundef %2) #0 {
  tail call void (...) @Extra_UtilGetoptReset() #17
  %4 = tail call i32 @Extra_UtilGetopt(i32 noundef %1, ptr noundef %2, ptr noundef nonnull @.str.65) #17
  %.not = icmp eq i32 %4, -1
  br i1 %.not, label %5, label %7

5:                                                ; preds = %3
  %6 = tail call ptr @Abc_UtilsGetVersion(ptr noundef %0) #17
  %puts = tail call i32 @puts(ptr nonnull dereferenceable(1) %6)
  br label %15

7:                                                ; preds = %3
  %8 = getelementptr inbounds nuw i8, ptr %0, i64 136
  %9 = load ptr, ptr %8, align 8
  %10 = tail call i64 @fwrite(ptr nonnull @.str.243, i64 20, i64 1, ptr %9)
  %11 = load ptr, ptr %8, align 8
  %12 = tail call i64 @fwrite(ptr nonnull @.str.244, i64 34, i64 1, ptr %11)
  %13 = load ptr, ptr %8, align 8
  %14 = tail call i64 @fwrite(ptr nonnull @.str.116, i64 33, i64 1, ptr %13)
  br label %15

15:                                               ; preds = %7, %5
  %.0 = phi i32 [ 1, %7 ], [ 0, %5 ]
  ret i32 %.0
}